; ModuleID = '24/1318.c'
source_filename = "24/1318.c"
target datalayout = "e-m:e-p270:32:32-p271:32:32-p272:64:64-i64:64-f80:128-n8:16:32:64-S128"
target triple = "x86_64-pc-linux-gnu"

@.str = private unnamed_addr constant [3 x i8] c"%c\00", align 1
@.str.1 = private unnamed_addr constant [2 x i8] c"\0A\00", align 1

; Function Attrs: noinline nounwind uwtable
define dso_local void @main() #0 {
  %1 = alloca [1000 x i8], align 16
  %2 = alloca i8*, align 8
  %3 = alloca i8*, align 8
  %4 = alloca i8*, align 8
  %5 = alloca i8*, align 8
  %6 = alloca i32, align 4
  %7 = alloca i32, align 4
  %8 = alloca i32, align 4
  store i32 0, i32* %7, align 4
  store i32 100000, i32* %8, align 4
  %9 = getelementptr inbounds [1000 x i8], [1000 x i8]* %1, i64 0, i64 0
  %10 = call i32 (i8*, ...) bitcast (i32 (...)* @gets to i32 (i8*, ...)*)(i8* %9)
  %11 = getelementptr inbounds [1000 x i8], [1000 x i8]* %1, i64 0, i64 0
  store i8* %11, i8** %3, align 8
  store i8* %11, i8** %2, align 8
  br label %12

12:                                               ; preds = %73, %0
  %13 = load i8*, i8** %2, align 8
  %14 = load i8, i8* %13, align 1
  %15 = icmp ne i8 %14, 0
  br i1 %15, label %16, label %76

16:                                               ; preds = %12
  %17 = load i8*, i8** %2, align 8
  %18 = load i8, i8* %17, align 1
  %19 = sext i8 %18 to i32
  %20 = icmp eq i32 %19, 32
  br i1 %20, label %21, label %44

21:                                               ; preds = %16
  %22 = load i8*, i8** %2, align 8
  %23 = load i8*, i8** %3, align 8
  %24 = ptrtoint i8* %22 to i64
  %25 = ptrtoint i8* %23 to i64
  %26 = sub i64 %24, %25
  %27 = trunc i64 %26 to i32
  store i32 %27, i32* %6, align 4
  %28 = load i32, i32* %6, align 4
  %29 = load i32, i32* %7, align 4
  %30 = icmp sgt i32 %28, %29
  br i1 %30, label %31, label %34

31:                                               ; preds = %21
  %32 = load i32, i32* %6, align 4
  store i32 %32, i32* %7, align 4
  %33 = load i8*, i8** %3, align 8
  store i8* %33, i8** %4, align 8
  br label %34

34:                                               ; preds = %31, %21
  %35 = load i32, i32* %6, align 4
  %36 = load i32, i32* %8, align 4
  %37 = icmp slt i32 %35, %36
  br i1 %37, label %38, label %41

38:                                               ; preds = %34
  %39 = load i32, i32* %6, align 4
  store i32 %39, i32* %8, align 4
  %40 = load i8*, i8** %3, align 8
  store i8* %40, i8** %5, align 8
  br label %41

41:                                               ; preds = %38, %34
  %42 = load i8*, i8** %2, align 8
  %43 = getelementptr inbounds i8, i8* %42, i64 1
  store i8* %43, i8** %3, align 8
  br label %44

44:                                               ; preds = %41, %16
  %45 = load i8*, i8** %2, align 8
  %46 = getelementptr inbounds i8, i8* %45, i64 1
  %47 = load i8, i8* %46, align 1
  %48 = sext i8 %47 to i32
  %49 = icmp eq i32 %48, 0
  br i1 %49, label %50, label %72

50:                                               ; preds = %44
  %51 = load i8*, i8** %2, align 8
  %52 = getelementptr inbounds i8, i8* %51, i64 1
  %53 = load i8*, i8** %3, align 8
  %54 = ptrtoint i8* %52 to i64
  %55 = ptrtoint i8* %53 to i64
  %56 = sub i64 %54, %55
  %57 = trunc i64 %56 to i32
  store i32 %57, i32* %6, align 4
  %58 = load i32, i32* %6, align 4
  %59 = load i32, i32* %7, align 4
  %60 = icmp sgt i32 %58, %59
  br i1 %60, label %61, label %64

61:                                               ; preds = %50
  %62 = load i32, i32* %6, align 4
  store i32 %62, i32* %7, align 4
  %63 = load i8*, i8** %3, align 8
  store i8* %63, i8** %4, align 8
  br label %64

64:                                               ; preds = %61, %50
  %65 = load i32, i32* %6, align 4
  %66 = load i32, i32* %8, align 4
  %67 = icmp slt i32 %65, %66
  br i1 %67, label %68, label %71

68:                                               ; preds = %64
  %69 = load i32, i32* %6, align 4
  store i32 %69, i32* %8, align 4
  %70 = load i8*, i8** %3, align 8
  store i8* %70, i8** %5, align 8
  br label %71

71:                                               ; preds = %68, %64
  br label %72

72:                                               ; preds = %71, %44
  br label %73

73:                                               ; preds = %72
  %74 = load i8*, i8** %2, align 8
  %75 = getelementptr inbounds i8, i8* %74, i32 1
  store i8* %75, i8** %2, align 8
  br label %12

76:                                               ; preds = %12
  br label %77

77:                                               ; preds = %89, %76
  %78 = load i8*, i8** %4, align 8
  %79 = load i8, i8* %78, align 1
  %80 = sext i8 %79 to i32
  %81 = icmp ne i32 %80, 32
  br i1 %81, label %82, label %87

82:                                               ; preds = %77
  %83 = load i8*, i8** %4, align 8
  %84 = load i8, i8* %83, align 1
  %85 = sext i8 %84 to i32
  %86 = icmp ne i32 %85, 0
  br label %87

87:                                               ; preds = %82, %77
  %88 = phi i1 [ false, %77 ], [ %86, %82 ]
  br i1 %88, label %89, label %96

89:                                               ; preds = %87
  %90 = load i8*, i8** %4, align 8
  %91 = load i8, i8* %90, align 1
  %92 = sext i8 %91 to i32
  %93 = call i32 (i8*, ...) @printf(i8* getelementptr inbounds ([3 x i8], [3 x i8]* @.str, i64 0, i64 0), i32 %92)
  %94 = load i8*, i8** %4, align 8
  %95 = getelementptr inbounds i8, i8* %94, i32 1
  store i8* %95, i8** %4, align 8
  br label %77

96:                                               ; preds = %87
  %97 = call i32 (i8*, ...) @printf(i8* getelementptr inbounds ([2 x i8], [2 x i8]* @.str.1, i64 0, i64 0))
  br label %98

98:                                               ; preds = %110, %96
  %99 = load i8*, i8** %5, align 8
  %100 = load i8, i8* %99, align 1
  %101 = sext i8 %100 to i32
  %102 = icmp ne i32 %101, 32
  br i1 %102, label %103, label %108

103:                                              ; preds = %98
  %104 = load i8*, i8** %5, align 8
  %105 = load i8, i8* %104, align 1
  %106 = sext i8 %105 to i32
  %107 = icmp ne i32 %106, 0
  br label %108

108:                                              ; preds = %103, %98
  %109 = phi i1 [ false, %98 ], [ %107, %103 ]
  br i1 %109, label %110, label %117

110:                                              ; preds = %108
  %111 = load i8*, i8** %5, align 8
  %112 = load i8, i8* %111, align 1
  %113 = sext i8 %112 to i32
  %114 = call i32 (i8*, ...) @printf(i8* getelementptr inbounds ([3 x i8], [3 x i8]* @.str, i64 0, i64 0), i32 %113)
  %115 = load i8*, i8** %5, align 8
  %116 = getelementptr inbounds i8, i8* %115, i32 1
  store i8* %116, i8** %5, align 8
  br label %98

117:                                              ; preds = %108
  ret void
}

declare dso_local i32 @gets(...) #1

declare dso_local i32 @printf(i8*, ...) #1


!llvm.module.flags = !{!0}
!llvm.ident = !{!1}

!0 = !{i32 1, !"wchar_size", i32 4}
!1 = !{!"clang version 10.0.0-4ubuntu1 "}
